target datalayout = "e-m:e-p270:32:32-p271:32:32-p272:64:64-i64:64-i128:128-f80:128-n8:16:32:64-S128"
target triple = "x86_64-pc-linux-gnu"

%struct.CLAMFI = type { ptr, ptr, ptr, ptr, ptr, i32, i32, i32, i32, i32, i32, i32, i32, i32, i32, i32, [1424 x i8] }

@addxvirus = dso_local global i32 0, align 4
@multircpt = dso_local global i32 1, align 4
@FailAction = internal global i32 0, align 4
@.str.52 = private unnamed_addr constant [14 x i8] c"{auth_authen}\00", align 1
@.str.53 = private unnamed_addr constant [41 x i8] c"Skipping scan for authenticated user %s\0A\00", align 1
@.str.54 = private unnamed_addr constant [37 x i8] c"Skipping scan for %s (allowed from)\0A\00", align 1
@.str.55 = private unnamed_addr constant [34 x i8] c"Failed to allocate CLAMFI struct\0A\00", align 1

; Function Attrs: nounwind uwtable
define dso_local i32 @clamfi_envfrom(ptr noundef %0, ptr noundef %1) #0 {
  %3 = alloca i32, align 4
  %4 = alloca ptr, align 8
  %5 = alloca ptr, align 8
  %6 = alloca ptr, align 8
  %7 = alloca ptr, align 8
  store ptr %0, ptr %4, align 8
  store ptr %1, ptr %5, align 8
  %8 = load ptr, ptr %4, align 8
  %9 = call ptr @smfi_getsymval(ptr noundef %8, ptr noundef @.str.52)
  store ptr %9, ptr %7, align 8
  %10 = load ptr, ptr %7, align 8
  %11 = icmp ne ptr %10, null
  br i1 %11, label %12, label %19

12:                                               ; preds = %2
  %13 = load ptr, ptr %7, align 8
  %14 = call i32 @smtpauthed(ptr noundef %13)
  %15 = icmp ne i32 %14, 0
  br i1 %15, label %16, label %19

16:                                               ; preds = %12
  %17 = load ptr, ptr %7, align 8
  %18 = call i32 (i32, ptr, ...) @logg(i32 noundef 2, ptr noundef @.str.53, ptr noundef %17)
  store i32 3, ptr %3, align 4
  br label %74

19:                                               ; preds = %12, %2
  %20 = load ptr, ptr %5, align 8
  %21 = getelementptr inbounds ptr, ptr %20, i64 0
  %22 = load ptr, ptr %21, align 8
  %23 = call i32 @allowed(ptr noundef %22, i32 noundef 1)
  %24 = icmp ne i32 %23, 0
  br i1 %24, label %25, label %30

25:                                               ; preds = %19
  %26 = load ptr, ptr %5, align 8
  %27 = getelementptr inbounds ptr, ptr %26, i64 0
  %28 = load ptr, ptr %27, align 8
  %29 = call i32 (i32, ptr, ...) @logg(i32 noundef 2, ptr noundef @.str.54, ptr noundef %28)
  store i32 3, ptr %3, align 4
  br label %74

30:                                               ; preds = %19
  %31 = call noalias ptr @malloc(i64 noundef 1512) #13
  store ptr %31, ptr %6, align 8
  %32 = icmp ne ptr %31, null
  br i1 %32, label %36, label %33

33:                                               ; preds = %30
  %34 = call i32 (i32, ptr, ...) @logg(i32 noundef 5, ptr noundef @.str.55)
  %35 = load i32, ptr @FailAction, align 4
  store i32 %35, ptr %3, align 4
  br label %74

36:                                               ; preds = %30
  %37 = load ptr, ptr %6, align 8
  %38 = getelementptr inbounds %struct.CLAMFI, ptr %37, i32 0, i32 8
  store i32 0, ptr %38, align 4
  %39 = load ptr, ptr %6, align 8
  %40 = getelementptr inbounds %struct.CLAMFI, ptr %39, i32 0, i32 9
  store i32 0, ptr %40, align 8
  %41 = load ptr, ptr %6, align 8
  %42 = getelementptr inbounds %struct.CLAMFI, ptr %41, i32 0, i32 7
  store i32 -1, ptr %42, align 8
  %43 = load ptr, ptr %6, align 8
  %44 = getelementptr inbounds %struct.CLAMFI, ptr %43, i32 0, i32 6
  store i32 -1, ptr %44, align 4
  %45 = load ptr, ptr %6, align 8
  %46 = getelementptr inbounds %struct.CLAMFI, ptr %45, i32 0, i32 10
  store i32 1, ptr %46, align 4
  %47 = load ptr, ptr %6, align 8
  %48 = getelementptr inbounds %struct.CLAMFI, ptr %47, i32 0, i32 11
  store i32 0, ptr %48, align 8
  %49 = load ptr, ptr %6, align 8
  %50 = getelementptr inbounds %struct.CLAMFI, ptr %49, i32 0, i32 3
  store ptr null, ptr %50, align 8
  %51 = load ptr, ptr %6, align 8
  %52 = getelementptr inbounds %struct.CLAMFI, ptr %51, i32 0, i32 2
  store ptr null, ptr %52, align 8
  %53 = load ptr, ptr %6, align 8
  %54 = getelementptr inbounds %struct.CLAMFI, ptr %53, i32 0, i32 1
  store ptr null, ptr %54, align 8
  %55 = load i32, ptr @multircpt, align 4
  %56 = icmp ne i32 %55, 0
  br i1 %56, label %57, label %62

57:                                               ; preds = %36
  %58 = load ptr, ptr %6, align 8
  %59 = getelementptr inbounds %struct.CLAMFI, ptr %58, i32 0, i32 4
  store ptr null, ptr %59, align 8
  %60 = load ptr, ptr %6, align 8
  %61 = getelementptr inbounds %struct.CLAMFI, ptr %60, i32 0, i32 14
  store i32 0, ptr %61, align 4
  br label %62

62:                                               ; preds = %57, %36
  %63 = load i32, ptr @addxvirus, align 4
  %64 = icmp eq i32 %63, 1
  br i1 %64, label %65, label %70

65:                                               ; preds = %62
  %66 = load ptr, ptr %6, align 8
  %67 = getelementptr inbounds %struct.CLAMFI, ptr %66, i32 0, i32 12
  store i32 0, ptr %67, align 4
  %68 = load ptr, ptr %6, align 8
  %69 = getelementptr inbounds %struct.CLAMFI, ptr %68, i32 0, i32 13
  store i32 0, ptr %69, align 8
  br label %70

70:                                               ; preds = %65, %62
  %71 = load ptr, ptr %4, align 8
  %72 = load ptr, ptr %6, align 8
  %73 = call i32 @smfi_setpriv(ptr noundef %71, ptr noundef %72)
  store i32 0, ptr %3, align 4
  br label %74

74:                                               ; preds = %70, %33, %25, %16
  %75 = load i32, ptr %3, align 4
  ret i32 %75
}